target datalayout = "e-m:e-p270:32:32-p271:32:32-p272:64:64-i64:64-i128:128-f80:128-n8:16:32:64-S128"
target triple = "x86_64-pc-linux-gnu"

%struct.AVCodecContext = type { ptr, i32, i32, ptr, i32, i32, ptr, ptr, ptr, i64, i32, i32, ptr, i32, %struct.AVRational, %struct.AVRational, %struct.AVRational, i32, i32, i32, i32, i32, %struct.AVRational, i32, i32, i32, i32, i32, i32, i32, i32, i32, i32, i32, ptr, ptr, i32, float, float, float, float, float, float, float, float, float, i32, i32, i32, i32, i32, i32, i32, i32, i32, i32, i32, i32, ptr, ptr, ptr, i32, i32, i32, i32, i32, i32, i32, i32, i32, i32, %struct.AVChannelLayout, i32, i32, i32, i32, i32, i32, i32, i32, ptr, i32, i32, i32, float, float, i32, i32, i32, i32, i32, ptr, i64, i64, float, float, i32, i32, ptr, ptr, i32, i32, i32, i32, i32, ptr, ptr, ptr, ptr, i32, i32, [8 x i64], i32, i32, i32, i32, i32, i32, i32, ptr, ptr, i32, i32, i32, i32, i32, i32, i32, i32, i32, i32, ptr, ptr, i32, i32, ptr, ptr, ptr, ptr, i32, i32, i64, i32, i32, i64, ptr, i64, ptr, i32, ptr, i32 }
%struct.AVRational = type { i32, i32 }
%struct.AVChannelLayout = type { i32, i32, %union.anon.0, ptr }
%union.anon.0 = type { i64 }
%struct.GetByteContext = type { ptr, ptr, ptr }
%struct.AVFrame = type { [8 x ptr], [8 x i32], ptr, i32, i32, i32, i32, i32, %struct.AVRational, i64, i64, %struct.AVRational, i32, ptr, i32, i32, [8 x ptr], ptr, i32, ptr, i32, i32, i32, i32, i32, i32, i32, i64, ptr, i32, ptr, ptr, i64, i64, i64, i64, ptr, %struct.AVChannelLayout, i64 }

; Function Attrs: alwaysinline nounwind uwtable
define internal i32 @bytestream_get_byte(ptr noundef %0) #4 {
  %2 = alloca ptr, align 8
  store ptr %0, ptr %2, align 8, !tbaa !116
  %3 = load ptr, ptr %2, align 8, !tbaa !116
  %4 = load ptr, ptr %3, align 8, !tbaa !71
  %5 = getelementptr inbounds i8, ptr %4, i64 1
  store ptr %5, ptr %3, align 8, !tbaa !71
  %6 = load ptr, ptr %2, align 8, !tbaa !116
  %7 = load ptr, ptr %6, align 8, !tbaa !71
  %8 = getelementptr inbounds i8, ptr %7, i64 -1
  %9 = getelementptr inbounds i8, ptr %8, i64 0
  %10 = load i8, ptr %9, align 1, !tbaa !94
  %11 = zext i8 %10 to i32
  ret i32 %11
}

; Function Attrs: alwaysinline nounwind uwtable
define internal i32 @bytestream2_get_byteu(ptr noundef %0) #4 {
  %2 = alloca ptr, align 8
  store ptr %0, ptr %2, align 8, !tbaa !55
  %3 = load ptr, ptr %2, align 8, !tbaa !55
  %4 = getelementptr inbounds nuw %struct.GetByteContext, ptr %3, i32 0, i32 0
  %5 = call i32 @bytestream_get_byte(ptr noundef %4)
  ret i32 %5
}

; Function Attrs: alwaysinline nounwind uwtable
define internal i32 @bytestream2_get_bytes_left(ptr noundef %0) #4 {
  %2 = alloca ptr, align 8
  store ptr %0, ptr %2, align 8, !tbaa !55
  %3 = load ptr, ptr %2, align 8, !tbaa !55
  %4 = getelementptr inbounds nuw %struct.GetByteContext, ptr %3, i32 0, i32 1
  %5 = load ptr, ptr %4, align 8, !tbaa !91
  %6 = load ptr, ptr %2, align 8, !tbaa !55
  %7 = getelementptr inbounds nuw %struct.GetByteContext, ptr %6, i32 0, i32 0
  %8 = load ptr, ptr %7, align 8, !tbaa !89
  %9 = ptrtoint ptr %5 to i64
  %10 = ptrtoint ptr %8 to i64
  %11 = sub i64 %9, %10
  %12 = trunc i64 %11 to i32
  ret i32 %12
}

; Function Attrs: nounwind uwtable
define internal i32 @decode_raw_intra_rgb(ptr noundef %0, ptr noundef %1, ptr noundef %2) #1 {
  %4 = alloca i32, align 4
  %5 = alloca ptr, align 8
  %6 = alloca ptr, align 8
  %7 = alloca ptr, align 8
  %8 = alloca ptr, align 8
  %9 = alloca i8, align 1
  %10 = alloca i8, align 1
  %11 = alloca i8, align 1
  %12 = alloca i32, align 4
  %13 = alloca i32, align 4
  %14 = alloca i32, align 4
  store ptr %0, ptr %5, align 8, !tbaa !4
  store ptr %1, ptr %6, align 8, !tbaa !55
  store ptr %2, ptr %7, align 8, !tbaa !49
  call void @llvm.lifetime.start.p0(i64 8, ptr %8) #10
  %15 = load ptr, ptr %7, align 8, !tbaa !49
  %16 = getelementptr inbounds nuw %struct.AVFrame, ptr %15, i32 0, i32 0
  %17 = getelementptr inbounds [8 x ptr], ptr %16, i64 0, i64 0
  %18 = load ptr, ptr %17, align 8, !tbaa !71
  %19 = load ptr, ptr %5, align 8, !tbaa !4
  %20 = getelementptr inbounds nuw %struct.AVCodecContext, ptr %19, i32 0, i32 19
  %21 = load i32, ptr %20, align 4, !tbaa !46
  %22 = sub nsw i32 %21, 1
  %23 = load ptr, ptr %7, align 8, !tbaa !49
  %24 = getelementptr inbounds nuw %struct.AVFrame, ptr %23, i32 0, i32 1
  %25 = getelementptr inbounds [8 x i32], ptr %24, i64 0, i64 0
  %26 = load i32, ptr %25, align 8, !tbaa !60
  %27 = mul nsw i32 %22, %26
  %28 = sext i32 %27 to i64
  %29 = getelementptr inbounds i8, ptr %18, i64 %28
  store ptr %29, ptr %8, align 8, !tbaa !71
  call void @llvm.lifetime.start.p0(i64 1, ptr %9) #10
  store i8 0, ptr %9, align 1, !tbaa !94
  call void @llvm.lifetime.start.p0(i64 1, ptr %10) #10
  store i8 0, ptr %10, align 1, !tbaa !94
  call void @llvm.lifetime.start.p0(i64 1, ptr %11) #10
  store i8 0, ptr %11, align 1, !tbaa !94
  %30 = load ptr, ptr %6, align 8, !tbaa !55
  %31 = call i32 @bytestream2_get_bytes_left(ptr noundef %30)
  %32 = load ptr, ptr %5, align 8, !tbaa !4
  %33 = getelementptr inbounds nuw %struct.AVCodecContext, ptr %32, i32 0, i32 18
  %34 = load i32, ptr %33, align 8, !tbaa !45
  %35 = mul nsw i32 3, %34
  %36 = load ptr, ptr %5, align 8, !tbaa !4
  %37 = getelementptr inbounds nuw %struct.AVCodecContext, ptr %36, i32 0, i32 19
  %38 = load i32, ptr %37, align 4, !tbaa !46
  %39 = mul nsw i32 %35, %38
  %40 = icmp slt i32 %31, %39
  br i1 %40, label %41, label %42

41:                                               ; preds = %3
  store i32 -1094995529, ptr %4, align 4
  store i32 1, ptr %12, align 4
  br label %132

42:                                               ; preds = %3
  call void @llvm.lifetime.start.p0(i64 4, ptr %13) #10
  store i32 0, ptr %13, align 4, !tbaa !60
  br label %43

43:                                               ; preds = %128, %42
  %44 = load i32, ptr %13, align 4, !tbaa !60
  %45 = load ptr, ptr %5, align 8, !tbaa !4
  %46 = getelementptr inbounds nuw %struct.AVCodecContext, ptr %45, i32 0, i32 19
  %47 = load i32, ptr %46, align 4, !tbaa !46
  %48 = icmp slt i32 %44, %47
  br i1 %48, label %50, label %49

49:                                               ; preds = %43
  store i32 2, ptr %12, align 4
  call void @llvm.lifetime.end.p0(i64 4, ptr %13) #10
  br label %131

50:                                               ; preds = %43
  call void @llvm.lifetime.start.p0(i64 4, ptr %14) #10
  store i32 0, ptr %14, align 4, !tbaa !60
  br label %51

51:                                               ; preds = %116, %50
  %52 = load i32, ptr %14, align 4, !tbaa !60
  %53 = load ptr, ptr %5, align 8, !tbaa !4
  %54 = getelementptr inbounds nuw %struct.AVCodecContext, ptr %53, i32 0, i32 18
  %55 = load i32, ptr %54, align 8, !tbaa !45
  %56 = icmp slt i32 %52, %55
  br i1 %56, label %58, label %57

57:                                               ; preds = %51
  store i32 5, ptr %12, align 4
  call void @llvm.lifetime.end.p0(i64 4, ptr %14) #10
  br label %119

58:                                               ; preds = %51
  %59 = load ptr, ptr %6, align 8, !tbaa !55
  %60 = call i32 @bytestream2_get_byteu(ptr noundef %59)
  %61 = load i8, ptr %9, align 1, !tbaa !94
  %62 = zext i8 %61 to i32
  %63 = add i32 %60, %62
  %64 = trunc i32 %63 to i8
  %65 = load ptr, ptr %8, align 8, !tbaa !71
  %66 = load i32, ptr %14, align 4, !tbaa !60
  %67 = mul nsw i32 %66, 3
  %68 = add nsw i32 %67, 0
  %69 = sext i32 %68 to i64
  %70 = getelementptr inbounds i8, ptr %65, i64 %69
  store i8 %64, ptr %70, align 1, !tbaa !94
  %71 = load ptr, ptr %8, align 8, !tbaa !71
  %72 = load i32, ptr %14, align 4, !tbaa !60
  %73 = mul nsw i32 %72, 3
  %74 = add nsw i32 %73, 0
  %75 = sext i32 %74 to i64
  %76 = getelementptr inbounds i8, ptr %71, i64 %75
  %77 = load i8, ptr %76, align 1, !tbaa !94
  store i8 %77, ptr %9, align 1, !tbaa !94
  %78 = load ptr, ptr %6, align 8, !tbaa !55
  %79 = call i32 @bytestream2_get_byteu(ptr noundef %78)
  %80 = load i8, ptr %10, align 1, !tbaa !94
  %81 = zext i8 %80 to i32
  %82 = add i32 %79, %81
  %83 = trunc i32 %82 to i8
  %84 = load ptr, ptr %8, align 8, !tbaa !71
  %85 = load i32, ptr %14, align 4, !tbaa !60
  %86 = mul nsw i32 %85, 3
  %87 = add nsw i32 %86, 1
  %88 = sext i32 %87 to i64
  %89 = getelementptr inbounds i8, ptr %84, i64 %88
  store i8 %83, ptr %89, align 1, !tbaa !94
  %90 = load ptr, ptr %8, align 8, !tbaa !71
  %91 = load i32, ptr %14, align 4, !tbaa !60
  %92 = mul nsw i32 %91, 3
  %93 = add nsw i32 %92, 1
  %94 = sext i32 %93 to i64
  %95 = getelementptr inbounds i8, ptr %90, i64 %94
  %96 = load i8, ptr %95, align 1, !tbaa !94
  store i8 %96, ptr %10, align 1, !tbaa !94
  %97 = load ptr, ptr %6, align 8, !tbaa !55
  %98 = call i32 @bytestream2_get_byteu(ptr noundef %97)
  %99 = load i8, ptr %11, align 1, !tbaa !94
  %100 = zext i8 %99 to i32
  %101 = add i32 %98, %100
  %102 = trunc i32 %101 to i8
  %103 = load ptr, ptr %8, align 8, !tbaa !71
  %104 = load i32, ptr %14, align 4, !tbaa !60
  %105 = mul nsw i32 %104, 3
  %106 = add nsw i32 %105, 2
  %107 = sext i32 %106 to i64
  %108 = getelementptr inbounds i8, ptr %103, i64 %107
  store i8 %102, ptr %108, align 1, !tbaa !94
  %109 = load ptr, ptr %8, align 8, !tbaa !71
  %110 = load i32, ptr %14, align 4, !tbaa !60
  %111 = mul nsw i32 %110, 3
  %112 = add nsw i32 %111, 2
  %113 = sext i32 %112 to i64
  %114 = getelementptr inbounds i8, ptr %109, i64 %113
  %115 = load i8, ptr %114, align 1, !tbaa !94
  store i8 %115, ptr %11, align 1, !tbaa !94
  br label %116

116:                                              ; preds = %58
  %117 = load i32, ptr %14, align 4, !tbaa !60
  %118 = add nsw i32 %117, 1
  store i32 %118, ptr %14, align 4, !tbaa !60
  br label %51, !llvm.loop !102

119:                                              ; preds = %57
  %120 = load ptr, ptr %7, align 8, !tbaa !49
  %121 = getelementptr inbounds nuw %struct.AVFrame, ptr %120, i32 0, i32 1
  %122 = getelementptr inbounds [8 x i32], ptr %121, i64 0, i64 0
  %123 = load i32, ptr %122, align 8, !tbaa !60
  %124 = load ptr, ptr %8, align 8, !tbaa !71
  %125 = sext i32 %123 to i64
  %126 = sub i64 0, %125
  %127 = getelementptr inbounds i8, ptr %124, i64 %126
  store ptr %127, ptr %8, align 8, !tbaa !71
  br label %128

128:                                              ; preds = %119
  %129 = load i32, ptr %13, align 4, !tbaa !60
  %130 = add nsw i32 %129, 1
  store i32 %130, ptr %13, align 4, !tbaa !60
  br label %43, !llvm.loop !103

131:                                              ; preds = %49
  store i32 0, ptr %4, align 4
  store i32 1, ptr %12, align 4
  br label %132

132:                                              ; preds = %131, %41
  call void @llvm.lifetime.end.p0(i64 1, ptr %11) #10
  call void @llvm.lifetime.end.p0(i64 1, ptr %10) #10
  call void @llvm.lifetime.end.p0(i64 1, ptr %9) #10
  call void @llvm.lifetime.end.p0(i64 8, ptr %8) #10
  %133 = load i32, ptr %4, align 4
  ret i32 %133
}