; Function Attrs: nofree norecurse nosync nounwind memory(readwrite, inaccessiblemem: none) uwtable
define internal fastcc range(i32 -1094995529, 1) i32 @decode_raw_intra_rgb(ptr noundef readonly captures(none) %0, ptr noundef captures(none) %1, ptr noundef readonly captures(none) %2) unnamed_addr #4 {
  %4 = getelementptr inbounds nuw i8, ptr %0, i64 116
  %5 = load i32, ptr %4, align 4, !tbaa !43
  %6 = getelementptr inbounds nuw i8, ptr %2, i64 64
  %7 = getelementptr inbounds nuw i8, ptr %1, i64 8
  %8 = load ptr, ptr %7, align 8, !tbaa !50
  %9 = load ptr, ptr %1, align 8, !tbaa !53
  %10 = ptrtoint ptr %8 to i64
  %11 = ptrtoint ptr %9 to i64
  %12 = sub i64 %10, %11
  %13 = trunc i64 %12 to i32
  %14 = getelementptr inbounds nuw i8, ptr %0, i64 112
  %15 = load i32, ptr %14, align 8, !tbaa !42
  %16 = mul i32 %5, 3
  %17 = mul i32 %16, %15
  %18 = icmp sgt i32 %17, %13
  br i1 %18, label %.loopexit, label %19

19:                                               ; preds = %3
  %20 = icmp sgt i32 %5, 0
  %21 = icmp sgt i32 %15, 0
  %or.cond = and i1 %20, %21
  br i1 %or.cond, label %.preheader.preheader, label %.loopexit

.preheader.preheader:                             ; preds = %19
  %22 = load ptr, ptr %2, align 8, !tbaa !51
  %23 = load i32, ptr %6, align 8, !tbaa !72
  %24 = add nsw i32 %5, -1
  %25 = mul nsw i32 %23, %24
  %26 = sext i32 %25 to i64
  %27 = getelementptr inbounds i8, ptr %22, i64 %26
  br label %.preheader

.preheader:                                       ; preds = %.preheader.preheader, %._crit_edge
  %28 = phi i32 [ %32, %._crit_edge ], [ %5, %.preheader.preheader ]
  %29 = phi i32 [ %33, %._crit_edge ], [ %23, %.preheader.preheader ]
  %30 = phi i32 [ %34, %._crit_edge ], [ %15, %.preheader.preheader ]
  %.03250 = phi i32 [ %38, %._crit_edge ], [ 0, %.preheader.preheader ]
  %.03349 = phi i8 [ %.1.lcssa, %._crit_edge ], [ 0, %.preheader.preheader ]
  %.03448 = phi i8 [ %.135.lcssa, %._crit_edge ], [ 0, %.preheader.preheader ]
  %.03647 = phi i8 [ %.137.lcssa, %._crit_edge ], [ 0, %.preheader.preheader ]
  %.03846 = phi ptr [ %37, %._crit_edge ], [ %27, %.preheader.preheader ]
  %31 = icmp sgt i32 %30, 0
  br i1 %31, label %.lr.ph, label %._crit_edge

._crit_edge.loopexit:                             ; preds = %.lr.ph
  %.pre = load i32, ptr %6, align 8, !tbaa !72
  %.pre54 = load i32, ptr %4, align 4, !tbaa !43
  br label %._crit_edge

._crit_edge:                                      ; preds = %._crit_edge.loopexit, %.preheader
  %32 = phi i32 [ %28, %.preheader ], [ %.pre54, %._crit_edge.loopexit ]
  %33 = phi i32 [ %29, %.preheader ], [ %.pre, %._crit_edge.loopexit ]
  %34 = phi i32 [ %30, %.preheader ], [ %56, %._crit_edge.loopexit ]
  %.137.lcssa = phi i8 [ %.03647, %.preheader ], [ %43, %._crit_edge.loopexit ]
  %.135.lcssa = phi i8 [ %.03448, %.preheader ], [ %49, %._crit_edge.loopexit ]
  %.1.lcssa = phi i8 [ %.03349, %.preheader ], [ %54, %._crit_edge.loopexit ]
  %35 = sext i32 %33 to i64
  %36 = sub nsw i64 0, %35
  %37 = getelementptr inbounds i8, ptr %.03846, i64 %36
  %38 = add nuw nsw i32 %.03250, 1
  %39 = icmp slt i32 %38, %32
  br i1 %39, label %.preheader, label %.loopexit, !llvm.loop !103

.lr.ph:                                           ; preds = %.preheader, %.lr.ph
  %indvars.iv = phi i64 [ %indvars.iv.next, %.lr.ph ], [ 0, %.preheader ]
  %.142 = phi i8 [ %54, %.lr.ph ], [ %.03349, %.preheader ]
  %.13541 = phi i8 [ %49, %.lr.ph ], [ %.03448, %.preheader ]
  %.13740 = phi i8 [ %43, %.lr.ph ], [ %.03647, %.preheader ]
  %40 = load ptr, ptr %1, align 8, !tbaa !51
  %41 = getelementptr inbounds nuw i8, ptr %40, i64 1
  store ptr %41, ptr %1, align 8, !tbaa !51
  %42 = load i8, ptr %40, align 1, !tbaa !52
  %43 = add i8 %42, %.13740
  %44 = mul nuw nsw i64 %indvars.iv, 3
  %45 = getelementptr inbounds nuw i8, ptr %.03846, i64 %44
  store i8 %43, ptr %45, align 1, !tbaa !52
  %46 = load ptr, ptr %1, align 8, !tbaa !51
  %47 = getelementptr inbounds nuw i8, ptr %46, i64 1
  store ptr %47, ptr %1, align 8, !tbaa !51
  %48 = load i8, ptr %46, align 1, !tbaa !52
  %49 = add i8 %48, %.13541
  %50 = getelementptr inbounds nuw i8, ptr %45, i64 1
  store i8 %49, ptr %50, align 1, !tbaa !52
  %51 = load ptr, ptr %1, align 8, !tbaa !51
  %52 = getelementptr inbounds nuw i8, ptr %51, i64 1
  store ptr %52, ptr %1, align 8, !tbaa !51
  %53 = load i8, ptr %51, align 1, !tbaa !52
  %54 = add i8 %53, %.142
  %55 = getelementptr inbounds nuw i8, ptr %45, i64 2
  store i8 %54, ptr %55, align 1, !tbaa !52
  %indvars.iv.next = add nuw nsw i64 %indvars.iv, 1
  %56 = load i32, ptr %14, align 8, !tbaa !42
  %57 = sext i32 %56 to i64
  %58 = icmp slt i64 %indvars.iv.next, %57
  br i1 %58, label %.lr.ph, label %._crit_edge.loopexit, !llvm.loop !105

.loopexit:                                        ; preds = %._crit_edge, %19, %3
  %.039 = phi i32 [ -1094995529, %3 ], [ 0, %19 ], [ 0, %._crit_edge ]
  ret i32 %.039
}